target datalayout = "e-m:e-p270:32:32-p271:32:32-p272:64:64-i64:64-i128:128-f80:128-n8:16:32:64-S128"
target triple = "x86_64-pc-linux-gnu"

%"class.pxrInternal_v0_24__pxrReserved__::GfRay" = type { %"class.pxrInternal_v0_24__pxrReserved__::GfVec3d", %"class.pxrInternal_v0_24__pxrReserved__::GfVec3d" }
%"class.pxrInternal_v0_24__pxrReserved__::GfVec3d" = type { [3 x double] }
%"class.pxrInternal_v0_24__pxrReserved__::GfPlane" = type { %"class.pxrInternal_v0_24__pxrReserved__::GfVec3d", double }

; Function Attrs: mustprogress nounwind uwtable
define linkonce_odr noundef nonnull align 8 dereferenceable(24) ptr @_ZN32pxrInternal_v0_24__pxrReserved__7GfVec3dmLEd(ptr noundef nonnull align 8 dereferenceable(24) %0, double noundef %1) #2 comdat align 2 {
  %3 = alloca ptr, align 8
  %4 = alloca double, align 8
  store ptr %0, ptr %3, align 8
  store double %1, ptr %4, align 8
  %5 = load ptr, ptr %3, align 8
  %6 = load double, ptr %4, align 8
  %7 = getelementptr inbounds nuw %"class.pxrInternal_v0_24__pxrReserved__::GfVec3d", ptr %5, i32 0, i32 0
  %8 = getelementptr inbounds [3 x double], ptr %7, i64 0, i64 0
  %9 = load double, ptr %8, align 8
  %10 = fmul double %9, %6
  store double %10, ptr %8, align 8
  %11 = load double, ptr %4, align 8
  %12 = getelementptr inbounds nuw %"class.pxrInternal_v0_24__pxrReserved__::GfVec3d", ptr %5, i32 0, i32 0
  %13 = getelementptr inbounds [3 x double], ptr %12, i64 0, i64 1
  %14 = load double, ptr %13, align 8
  %15 = fmul double %14, %11
  store double %15, ptr %13, align 8
  %16 = load double, ptr %4, align 8
  %17 = getelementptr inbounds nuw %"class.pxrInternal_v0_24__pxrReserved__::GfVec3d", ptr %5, i32 0, i32 0
  %18 = getelementptr inbounds [3 x double], ptr %17, i64 0, i64 2
  %19 = load double, ptr %18, align 8
  %20 = fmul double %19, %16
  store double %20, ptr %18, align 8
  ret ptr %5
}

; Function Attrs: mustprogress nounwind uwtable
define linkonce_odr noundef nonnull align 8 dereferenceable(8) ptr @_ZNK32pxrInternal_v0_24__pxrReserved__7GfVec3dixEm(ptr noundef nonnull align 8 dereferenceable(24) %0, i64 noundef %1) #2 comdat align 2 {
  %3 = alloca ptr, align 8
  %4 = alloca i64, align 8
  store ptr %0, ptr %3, align 8
  store i64 %1, ptr %4, align 8
  %5 = load ptr, ptr %3, align 8
  %6 = getelementptr inbounds nuw %"class.pxrInternal_v0_24__pxrReserved__::GfVec3d", ptr %5, i32 0, i32 0
  %7 = load i64, ptr %4, align 8
  %8 = getelementptr inbounds [3 x double], ptr %6, i64 0, i64 %7
  ret ptr %8
}

; Function Attrs: mustprogress uwtable
define linkonce_odr noundef nonnull align 8 dereferenceable(24) ptr @_ZN32pxrInternal_v0_24__pxrReserved__7GfVec3dmIERKS0_(ptr noundef nonnull align 8 dereferenceable(24) %0, ptr noundef nonnull align 8 dereferenceable(24) %1) #0 comdat align 2 {
  %3 = alloca ptr, align 8
  %4 = alloca ptr, align 8
  store ptr %0, ptr %3, align 8
  store ptr %1, ptr %4, align 8
  %5 = load ptr, ptr %3, align 8
  %6 = load ptr, ptr %4, align 8
  %7 = call noundef nonnull align 8 dereferenceable(8) ptr @_ZNK32pxrInternal_v0_24__pxrReserved__7GfVec3dixEm(ptr noundef nonnull align 8 dereferenceable(24) %6, i64 noundef 0)
  %8 = load double, ptr %7, align 8
  %9 = getelementptr inbounds nuw %"class.pxrInternal_v0_24__pxrReserved__::GfVec3d", ptr %5, i32 0, i32 0
  %10 = getelementptr inbounds [3 x double], ptr %9, i64 0, i64 0
  %11 = load double, ptr %10, align 8
  %12 = fsub double %11, %8
  store double %12, ptr %10, align 8
  %13 = load ptr, ptr %4, align 8
  %14 = call noundef nonnull align 8 dereferenceable(8) ptr @_ZNK32pxrInternal_v0_24__pxrReserved__7GfVec3dixEm(ptr noundef nonnull align 8 dereferenceable(24) %13, i64 noundef 1)
  %15 = load double, ptr %14, align 8
  %16 = getelementptr inbounds nuw %"class.pxrInternal_v0_24__pxrReserved__::GfVec3d", ptr %5, i32 0, i32 0
  %17 = getelementptr inbounds [3 x double], ptr %16, i64 0, i64 1
  %18 = load double, ptr %17, align 8
  %19 = fsub double %18, %15
  store double %19, ptr %17, align 8
  %20 = load ptr, ptr %4, align 8
  %21 = call noundef nonnull align 8 dereferenceable(8) ptr @_ZNK32pxrInternal_v0_24__pxrReserved__7GfVec3dixEm(ptr noundef nonnull align 8 dereferenceable(24) %20, i64 noundef 2)
  %22 = load double, ptr %21, align 8
  %23 = getelementptr inbounds nuw %"class.pxrInternal_v0_24__pxrReserved__::GfVec3d", ptr %5, i32 0, i32 0
  %24 = getelementptr inbounds [3 x double], ptr %23, i64 0, i64 2
  %25 = load double, ptr %24, align 8
  %26 = fsub double %25, %22
  store double %26, ptr %24, align 8
  ret ptr %5
}

; Function Attrs: mustprogress nounwind uwtable
define linkonce_odr void @_ZNK32pxrInternal_v0_24__pxrReserved__7GfVec3dmlEd(ptr dead_on_unwind noalias writable sret(%"class.pxrInternal_v0_24__pxrReserved__::GfVec3d") align 8 %0, ptr noundef nonnull align 8 dereferenceable(24) %1, double noundef %2) #2 comdat align 2 {
  %4 = alloca ptr, align 8
  %5 = alloca double, align 8
  %6 = alloca %"class.pxrInternal_v0_24__pxrReserved__::GfVec3d", align 8
  store ptr %1, ptr %4, align 8
  store double %2, ptr %5, align 8
  %7 = load ptr, ptr %4, align 8
  %8 = load double, ptr %5, align 8
  call void @llvm.memcpy.p0.p0.i64(ptr align 8 %6, ptr align 8 %7, i64 24, i1 false)
  %9 = call noundef nonnull align 8 dereferenceable(24) ptr @_ZN32pxrInternal_v0_24__pxrReserved__7GfVec3dmLEd(ptr noundef nonnull align 8 dereferenceable(24) %6, double noundef %8)
  call void @llvm.memcpy.p0.p0.i64(ptr align 8 %0, ptr align 8 %9, i64 24, i1 false)
  ret void
}

; Function Attrs: mustprogress uwtable
define linkonce_odr noundef double @_ZNK32pxrInternal_v0_24__pxrReserved__7GfVec3dmlERKS0_(ptr noundef nonnull align 8 dereferenceable(24) %0, ptr noundef nonnull align 8 dereferenceable(24) %1) #0 comdat align 2 {
  %3 = alloca ptr, align 8
  %4 = alloca ptr, align 8
  store ptr %0, ptr %3, align 8
  store ptr %1, ptr %4, align 8
  %5 = load ptr, ptr %3, align 8
  %6 = getelementptr inbounds nuw %"class.pxrInternal_v0_24__pxrReserved__::GfVec3d", ptr %5, i32 0, i32 0
  %7 = getelementptr inbounds [3 x double], ptr %6, i64 0, i64 0
  %8 = load double, ptr %7, align 8
  %9 = load ptr, ptr %4, align 8
  %10 = call noundef nonnull align 8 dereferenceable(8) ptr @_ZNK32pxrInternal_v0_24__pxrReserved__7GfVec3dixEm(ptr noundef nonnull align 8 dereferenceable(24) %9, i64 noundef 0)
  %11 = load double, ptr %10, align 8
  %12 = getelementptr inbounds nuw %"class.pxrInternal_v0_24__pxrReserved__::GfVec3d", ptr %5, i32 0, i32 0
  %13 = getelementptr inbounds [3 x double], ptr %12, i64 0, i64 1
  %14 = load double, ptr %13, align 8
  %15 = load ptr, ptr %4, align 8
  %16 = call noundef nonnull align 8 dereferenceable(8) ptr @_ZNK32pxrInternal_v0_24__pxrReserved__7GfVec3dixEm(ptr noundef nonnull align 8 dereferenceable(24) %15, i64 noundef 1)
  %17 = load double, ptr %16, align 8
  %18 = fmul double %14, %17
  %19 = call double @llvm.fmuladd.f64(double %8, double %11, double %18)
  %20 = getelementptr inbounds nuw %"class.pxrInternal_v0_24__pxrReserved__::GfVec3d", ptr %5, i32 0, i32 0
  %21 = getelementptr inbounds [3 x double], ptr %20, i64 0, i64 2
  %22 = load double, ptr %21, align 8
  %23 = load ptr, ptr %4, align 8
  %24 = call noundef nonnull align 8 dereferenceable(8) ptr @_ZNK32pxrInternal_v0_24__pxrReserved__7GfVec3dixEm(ptr noundef nonnull align 8 dereferenceable(24) %23, i64 noundef 2)
  %25 = load double, ptr %24, align 8
  %26 = call double @llvm.fmuladd.f64(double %22, double %25, double %19)
  ret double %26
}

; Function Attrs: mustprogress uwtable
define linkonce_odr void @_ZN32pxrInternal_v0_24__pxrReserved__miERKNS_7GfVec3dES2_(ptr dead_on_unwind noalias writable sret(%"class.pxrInternal_v0_24__pxrReserved__::GfVec3d") align 8 %0, ptr noundef nonnull align 8 dereferenceable(24) %1, ptr noundef nonnull align 8 dereferenceable(24) %2) #0 comdat {
  %4 = alloca ptr, align 8
  %5 = alloca ptr, align 8
  %6 = alloca %"class.pxrInternal_v0_24__pxrReserved__::GfVec3d", align 8
  store ptr %1, ptr %4, align 8
  store ptr %2, ptr %5, align 8
  %7 = load ptr, ptr %5, align 8
  %8 = load ptr, ptr %4, align 8
  call void @llvm.memcpy.p0.p0.i64(ptr align 8 %6, ptr align 8 %8, i64 24, i1 false)
  %9 = call noundef nonnull align 8 dereferenceable(24) ptr @_ZN32pxrInternal_v0_24__pxrReserved__7GfVec3dmIERKS0_(ptr noundef nonnull align 8 dereferenceable(24) %6, ptr noundef nonnull align 8 dereferenceable(24) %7)
  call void @llvm.memcpy.p0.p0.i64(ptr align 8 %0, ptr align 8 %9, i64 24, i1 false)
  ret void
}

; Function Attrs: mustprogress nounwind uwtable
define linkonce_odr void @_ZN32pxrInternal_v0_24__pxrReserved__mlEdRKNS_7GfVec3dE(ptr dead_on_unwind noalias writable sret(%"class.pxrInternal_v0_24__pxrReserved__::GfVec3d") align 8 %0, double noundef %1, ptr noundef nonnull align 8 dereferenceable(24) %2) #2 comdat {
  %4 = alloca double, align 8
  %5 = alloca ptr, align 8
  store double %1, ptr %4, align 8
  store ptr %2, ptr %5, align 8
  %6 = load ptr, ptr %5, align 8
  %7 = load double, ptr %4, align 8
  call void @_ZNK32pxrInternal_v0_24__pxrReserved__7GfVec3dmlEd(ptr dead_on_unwind writable sret(%"class.pxrInternal_v0_24__pxrReserved__::GfVec3d") align 8 %0, ptr noundef nonnull align 8 dereferenceable(24) %6, double noundef %7)
  ret void
}

; Function Attrs: mustprogress nounwind uwtable
define linkonce_odr noundef double @_ZNK32pxrInternal_v0_24__pxrReserved__7GfPlane21GetDistanceFromOriginEv(ptr noundef nonnull align 8 dereferenceable(32) %0) #2 comdat align 2 {
  %2 = alloca ptr, align 8
  store ptr %0, ptr %2, align 8
  %3 = load ptr, ptr %2, align 8
  %4 = getelementptr inbounds nuw %"class.pxrInternal_v0_24__pxrReserved__::GfPlane", ptr %3, i32 0, i32 1
  %5 = load double, ptr %4, align 8
  ret double %5
}

; Function Attrs: mustprogress uwtable
define linkonce_odr noundef double @_ZN32pxrInternal_v0_24__pxrReserved__5GfDotERKNS_7GfVec3dES2_(ptr noundef nonnull align 8 dereferenceable(24) %0, ptr noundef nonnull align 8 dereferenceable(24) %1) #0 comdat {
  %3 = alloca ptr, align 8
  %4 = alloca ptr, align 8
  store ptr %0, ptr %3, align 8
  store ptr %1, ptr %4, align 8
  %5 = load ptr, ptr %3, align 8
  %6 = load ptr, ptr %4, align 8
  %7 = call noundef double @_ZNK32pxrInternal_v0_24__pxrReserved__7GfVec3dmlERKS0_(ptr noundef nonnull align 8 dereferenceable(24) %5, ptr noundef nonnull align 8 dereferenceable(24) %6)
  ret double %7
}

; Function Attrs: mustprogress nounwind uwtable
define linkonce_odr noundef nonnull align 8 dereferenceable(24) ptr @_ZNK32pxrInternal_v0_24__pxrReserved__7GfPlane9GetNormalEv(ptr noundef nonnull align 8 dereferenceable(32) %0) #2 comdat align 2 {
  %2 = alloca ptr, align 8
  store ptr %0, ptr %2, align 8
  %3 = load ptr, ptr %2, align 8
  %4 = getelementptr inbounds nuw %"class.pxrInternal_v0_24__pxrReserved__::GfPlane", ptr %3, i32 0, i32 0
  ret ptr %4
}

; Function Attrs: mustprogress uwtable
define noundef zeroext i1 @_ZNK32pxrInternal_v0_24__pxrReserved__5GfRay9IntersectERKNS_7GfPlaneEPdPb(ptr noundef nonnull align 8 dereferenceable(48) %0, ptr noundef nonnull align 8 dereferenceable(32) %1, ptr noundef %2, ptr noundef %3) #0 align 2 {
  %5 = alloca i1, align 1
  %6 = alloca ptr, align 8
  %7 = alloca ptr, align 8
  %8 = alloca ptr, align 8
  %9 = alloca ptr, align 8
  %10 = alloca double, align 8
  %11 = alloca %"class.pxrInternal_v0_24__pxrReserved__::GfVec3d", align 8
  %12 = alloca double, align 8
  %13 = alloca %"class.pxrInternal_v0_24__pxrReserved__::GfVec3d", align 8
  store ptr %0, ptr %6, align 8
  store ptr %1, ptr %7, align 8
  store ptr %2, ptr %8, align 8
  store ptr %3, ptr %9, align 8
  %14 = load ptr, ptr %6, align 8
  %15 = getelementptr inbounds nuw %"class.pxrInternal_v0_24__pxrReserved__::GfRay", ptr %14, i32 0, i32 1
  %16 = load ptr, ptr %7, align 8
  %17 = call noundef nonnull align 8 dereferenceable(24) ptr @_ZNK32pxrInternal_v0_24__pxrReserved__7GfPlane9GetNormalEv(ptr noundef nonnull align 8 dereferenceable(32) %16)
  %18 = call noundef double @_ZN32pxrInternal_v0_24__pxrReserved__5GfDotERKNS_7GfVec3dES2_(ptr noundef nonnull align 8 dereferenceable(24) %15, ptr noundef nonnull align 8 dereferenceable(24) %17)
  store double %18, ptr %10, align 8
  %19 = load double, ptr %10, align 8
  %20 = fcmp olt double %19, 1.000000e-10
  br i1 %20, label %21, label %25

21:                                               ; preds = %4
  %22 = load double, ptr %10, align 8
  %23 = fcmp ogt double %22, -1.000000e-10
  br i1 %23, label %24, label %25

24:                                               ; preds = %21
  store i1 false, ptr %5, align 1
  br label %54

25:                                               ; preds = %21, %4
  %26 = load ptr, ptr %7, align 8
  %27 = call noundef double @_ZNK32pxrInternal_v0_24__pxrReserved__7GfPlane21GetDistanceFromOriginEv(ptr noundef nonnull align 8 dereferenceable(32) %26)
  %28 = load ptr, ptr %7, align 8
  %29 = call noundef nonnull align 8 dereferenceable(24) ptr @_ZNK32pxrInternal_v0_24__pxrReserved__7GfPlane9GetNormalEv(ptr noundef nonnull align 8 dereferenceable(32) %28)
  call void @_ZN32pxrInternal_v0_24__pxrReserved__mlEdRKNS_7GfVec3dE(ptr dead_on_unwind writable sret(%"class.pxrInternal_v0_24__pxrReserved__::GfVec3d") align 8 %11, double noundef %27, ptr noundef nonnull align 8 dereferenceable(24) %29)
  %30 = getelementptr inbounds nuw %"class.pxrInternal_v0_24__pxrReserved__::GfRay", ptr %14, i32 0, i32 0
  call void @_ZN32pxrInternal_v0_24__pxrReserved__miERKNS_7GfVec3dES2_(ptr dead_on_unwind writable sret(%"class.pxrInternal_v0_24__pxrReserved__::GfVec3d") align 8 %13, ptr noundef nonnull align 8 dereferenceable(24) %11, ptr noundef nonnull align 8 dereferenceable(24) %30)
  %31 = load ptr, ptr %7, align 8
  %32 = call noundef nonnull align 8 dereferenceable(24) ptr @_ZNK32pxrInternal_v0_24__pxrReserved__7GfPlane9GetNormalEv(ptr noundef nonnull align 8 dereferenceable(32) %31)
  %33 = call noundef double @_ZN32pxrInternal_v0_24__pxrReserved__5GfDotERKNS_7GfVec3dES2_(ptr noundef nonnull align 8 dereferenceable(24) %13, ptr noundef nonnull align 8 dereferenceable(24) %32)
  %34 = load double, ptr %10, align 8
  %35 = fdiv double %33, %34
  store double %35, ptr %12, align 8
  %36 = load double, ptr %12, align 8
  %37 = fcmp olt double %36, 0.000000e+00
  br i1 %37, label %38, label %39

38:                                               ; preds = %25
  store i1 false, ptr %5, align 1
  br label %54

39:                                               ; preds = %25
  %40 = load ptr, ptr %8, align 8
  %41 = icmp ne ptr %40, null
  br i1 %41, label %42, label %45

42:                                               ; preds = %39
  %43 = load double, ptr %12, align 8
  %44 = load ptr, ptr %8, align 8
  store double %43, ptr %44, align 8
  br label %45

45:                                               ; preds = %42, %39
  %46 = load ptr, ptr %9, align 8
  %47 = icmp ne ptr %46, null
  br i1 %47, label %48, label %53

48:                                               ; preds = %45
  %49 = load double, ptr %10, align 8
  %50 = fcmp olt double %49, 0.000000e+00
  %51 = load ptr, ptr %9, align 8
  %52 = zext i1 %50 to i8
  store i8 %52, ptr %51, align 1
  br label %53

53:                                               ; preds = %48, %45
  store i1 true, ptr %5, align 1
  br label %54

54:                                               ; preds = %53, %38, %24
  %55 = load i1, ptr %5, align 1
  ret i1 %55
}