; Function Attrs: mustprogress nofree norecurse nosync nounwind willreturn memory(argmem: readwrite) uwtable
define noundef zeroext i1 @_ZNK32pxrInternal_v0_24__pxrReserved__5GfRay9IntersectERKNS_7GfPlaneEPdPb(ptr nocapture noundef nonnull readonly align 8 dereferenceable(48) %0, ptr nocapture noundef nonnull readonly align 8 dereferenceable(32) %1, ptr noundef writeonly %2, ptr noundef writeonly %3) local_unnamed_addr #1 align 2 {
  %5 = getelementptr inbounds nuw i8, ptr %0, i64 24
  %6 = load double, ptr %5, align 8
  %7 = load double, ptr %1, align 8
  %8 = getelementptr inbounds i8, ptr %0, i64 32
  %9 = load double, ptr %8, align 8
  %10 = getelementptr inbounds i8, ptr %1, i64 8
  %11 = load double, ptr %10, align 8
  %12 = fmul double %9, %11
  %13 = tail call double @llvm.fmuladd.f64(double %6, double %7, double %12)
  %14 = getelementptr inbounds i8, ptr %0, i64 40
  %15 = load double, ptr %14, align 8
  %16 = getelementptr inbounds i8, ptr %1, i64 16
  %17 = load double, ptr %16, align 8
  %18 = tail call noundef double @llvm.fmuladd.f64(double %15, double %17, double %13)
  %19 = tail call double @llvm.fabs.f64(double %18)
  %or.cond = fcmp olt double %19, 1.000000e-10
  br i1 %or.cond, label %45, label %20

20:                                               ; preds = %4
  %21 = getelementptr inbounds nuw i8, ptr %1, i64 24
  %22 = load double, ptr %21, align 8
  %23 = fmul double %7, %22
  %24 = fmul double %11, %22
  %25 = fmul double %17, %22
  %26 = load double, ptr %0, align 8, !noalias !42
  %27 = fsub double %23, %26
  %28 = getelementptr inbounds i8, ptr %0, i64 8
  %29 = load double, ptr %28, align 8, !noalias !42
  %30 = fsub double %24, %29
  %31 = getelementptr inbounds i8, ptr %0, i64 16
  %32 = load double, ptr %31, align 8, !noalias !42
  %33 = fsub double %25, %32
  %34 = fmul double %11, %30
  %35 = tail call double @llvm.fmuladd.f64(double %27, double %7, double %34)
  %36 = tail call noundef double @llvm.fmuladd.f64(double %33, double %17, double %35)
  %37 = fdiv double %36, %18
  %38 = fcmp olt double %37, 0.000000e+00
  br i1 %38, label %45, label %39

39:                                               ; preds = %20
  %.not = icmp eq ptr %2, null
  br i1 %.not, label %41, label %40

40:                                               ; preds = %39
  store double %37, ptr %2, align 8
  br label %41

41:                                               ; preds = %40, %39
  %.not20 = icmp eq ptr %3, null
  br i1 %.not20, label %45, label %42

42:                                               ; preds = %41
  %43 = fcmp olt double %18, 0.000000e+00
  %44 = zext i1 %43 to i8
  store i8 %44, ptr %3, align 1
  br label %45

45:                                               ; preds = %41, %42, %20, %4
  %.0 = phi i1 [ false, %4 ], [ false, %20 ], [ true, %42 ], [ true, %41 ]
  ret i1 %.0
}